target datalayout = "e-m:e-p270:32:32-p271:32:32-p272:64:64-i64:64-i128:128-f80:128-n8:16:32:64-S128"
target triple = "x86_64-unknown-linux-gnu"

%"class.icu_75::MeasureUnit" = type <{ %"class.icu_75::UObject", ptr, i16, i8, [5 x i8] }>
%"class.icu_75::UObject" = type { ptr }

@_ZTVN6icu_757UObjectE = external unnamed_addr constant { [5 x ptr] }, align 8

; Function Attrs: mustprogress nounwind uwtable
define linkonce_odr void @_ZN6icu_757UObjectC2Ev(ptr noundef nonnull align 8 dereferenceable(8) %this) unnamed_addr #0 comdat align 2 {
entry:
  %this.addr = alloca ptr, align 8
  store ptr %this, ptr %this.addr, align 8
  %this1 = load ptr, ptr %this.addr, align 8
  store ptr getelementptr inbounds ({ [5 x ptr] }, ptr @_ZTVN6icu_757UObjectE, i32 0, i32 0, i32 2), ptr %this1, align 8
  ret void
}

; Function Attrs: mustprogress nounwind uwtable
define void @_ZN6icu_7511MeasureUnitC2Eii(ptr noundef nonnull align 8 dereferenceable(19) %this, i32 noundef %typeId, i32 noundef %subTypeId) unnamed_addr #0 align 2 {
entry:
  %this.addr = alloca ptr, align 8
  %typeId.addr = alloca i32, align 4
  %subTypeId.addr = alloca i32, align 4
  store ptr %this, ptr %this.addr, align 8
  store i32 %typeId, ptr %typeId.addr, align 4
  store i32 %subTypeId, ptr %subTypeId.addr, align 4
  %this1 = load ptr, ptr %this.addr, align 8
  call void @_ZN6icu_757UObjectC2Ev(ptr noundef nonnull align 8 dereferenceable(8) %this1) #8
  store ptr getelementptr inbounds ({ [7 x ptr] }, ptr @_ZTVN6icu_7511MeasureUnitE, i32 0, i32 0, i32 2), ptr %this1, align 8
  %fImpl = getelementptr inbounds %"class.icu_75::MeasureUnit", ptr %this1, i32 0, i32 1
  store ptr null, ptr %fImpl, align 8
  %fSubTypeId = getelementptr inbounds %"class.icu_75::MeasureUnit", ptr %this1, i32 0, i32 2
  %0 = load i32, ptr %subTypeId.addr, align 4
  %conv = trunc i32 %0 to i16
  store i16 %conv, ptr %fSubTypeId, align 8
  %fTypeId = getelementptr inbounds %"class.icu_75::MeasureUnit", ptr %this1, i32 0, i32 3
  %1 = load i32, ptr %typeId.addr, align 4
  %conv2 = trunc i32 %1 to i8
  store i8 %conv2, ptr %fTypeId, align 2
  ret void
}

; Function Attrs: mustprogress uwtable
define void @_ZN6icu_7511MeasureUnitC2Ev(ptr noundef nonnull align 8 dereferenceable(19) %this) unnamed_addr #1 align 2 {
entry:
  %this.addr = alloca ptr, align 8
  store ptr %this, ptr %this.addr, align 8
  %this1 = load ptr, ptr %this.addr, align 8
  call void @_ZN6icu_7511MeasureUnitC2Eii(ptr noundef nonnull align 8 dereferenceable(19) %this1, i32 noundef 16, i32 noundef 0)
  ret void
}