; Function Attrs: mustprogress nofree norecurse nosync nounwind willreturn memory(argmem: write) uwtable
define void @_ZN6icu_7511MeasureUnitC2Ev(ptr nocapture noundef nonnull writeonly align 8 dereferenceable(19) %this) unnamed_addr #7 align 2 {
entry:
  store ptr getelementptr inbounds ({ [7 x ptr] }, ptr @_ZTVN6icu_7511MeasureUnitE, i64 0, i32 0, i64 2), ptr %this, align 8
  %fImpl.i = getelementptr inbounds i8, ptr %this, i64 8
  store ptr null, ptr %fImpl.i, align 8
  %fSubTypeId.i = getelementptr inbounds i8, ptr %this, i64 16
  store i16 0, ptr %fSubTypeId.i, align 8
  %fTypeId.i = getelementptr inbounds i8, ptr %this, i64 18
  store i8 16, ptr %fTypeId.i, align 2
  ret void
}